target datalayout = "e-m:e-p270:32:32-p271:32:32-p272:64:64-i64:64-i128:128-f80:128-n8:16:32:64-S128"
target triple = "x86_64-unknown-linux-gnu"

@.str.19 = private unnamed_addr constant [23 x i8] c"%s: Crypto failure: %s\00", align 1
@__func__.rmw_seed = private unnamed_addr constant [9 x i8] c"rmw_seed\00", align 1
@qemu_loglevel = external global i32, align 4

; Function Attrs: nounwind sspstrong uwtable
define internal zeroext i1 @qemu_loglevel_mask(i32 noundef %mask) #0 {
entry:
  %mask.addr = alloca i32, align 4
  store i32 %mask, ptr %mask.addr, align 4
  %0 = load i32, ptr @qemu_loglevel, align 4
  %1 = load i32, ptr %mask.addr, align 4
  %and = and i32 %0, %1
  %cmp = icmp ne i32 %and, 0
  ret i1 %cmp
}

; Function Attrs: nounwind sspstrong uwtable
define internal i32 @rmw_seed(ptr noundef %env, i32 noundef %csrno, ptr noundef %ret_value, i64 noundef %new_value, i64 noundef %write_mask) #0 {
entry:
  %env.addr = alloca ptr, align 8
  %csrno.addr = alloca i32, align 4
  %ret_value.addr = alloca ptr, align 8
  %new_value.addr = alloca i64, align 8
  %write_mask.addr = alloca i64, align 8
  %random_v = alloca i16, align 2
  %random_e = alloca ptr, align 8
  %random_r = alloca i32, align 4
  %rval = alloca i64, align 8
  store ptr %env, ptr %env.addr, align 8
  store i32 %csrno, ptr %csrno.addr, align 4
  store ptr %ret_value, ptr %ret_value.addr, align 8
  store i64 %new_value, ptr %new_value.addr, align 8
  store i64 %write_mask, ptr %write_mask.addr, align 8
  store ptr null, ptr %random_e, align 8
  %call = call i32 @qemu_guest_getrandom(ptr noundef %random_v, i64 noundef 2, ptr noundef %random_e)
  store i32 %call, ptr %random_r, align 4
  %0 = load i32, ptr %random_r, align 4
  %cmp = icmp slt i32 %0, 0
  %lnot = xor i1 %cmp, true
  %lnot1 = xor i1 %lnot, true
  %lnot.ext = zext i1 %lnot1 to i32
  %conv = sext i32 %lnot.ext to i64
  %tobool = icmp ne i64 %conv, 0
  br i1 %tobool, label %if.then, label %if.else

if.then:                                          ; preds = %entry
  br label %do.body

do.body:                                          ; preds = %if.then
  %call2 = call zeroext i1 @qemu_loglevel_mask(i32 noundef 1024)
  %lnot3 = xor i1 %call2, true
  %lnot5 = xor i1 %lnot3, true
  %lnot.ext6 = zext i1 %lnot5 to i32
  %conv7 = sext i32 %lnot.ext6 to i64
  %tobool8 = icmp ne i64 %conv7, 0
  br i1 %tobool8, label %if.then9, label %if.end

if.then9:                                         ; preds = %do.body
  %1 = load ptr, ptr %random_e, align 8
  %call10 = call ptr @error_get_pretty(ptr noundef %1)
  call void (ptr, ...) @qemu_log(ptr noundef @.str.19, ptr noundef @__func__.rmw_seed, ptr noundef %call10)
  br label %if.end

if.end:                                           ; preds = %if.then9, %do.body
  br label %do.end

do.end:                                           ; preds = %if.end
  %2 = load ptr, ptr %random_e, align 8
  call void @error_free(ptr noundef %2)
  store i64 -1073741824, ptr %rval, align 8
  br label %if.end13

if.else:                                          ; preds = %entry
  %3 = load i16, ptr %random_v, align 2
  %conv11 = zext i16 %3 to i32
  %or = or i32 %conv11, -2147483648
  %conv12 = sext i32 %or to i64
  store i64 %conv12, ptr %rval, align 8
  br label %if.end13

if.end13:                                         ; preds = %if.else, %do.end
  %4 = load ptr, ptr %ret_value.addr, align 8
  %tobool14 = icmp ne ptr %4, null
  br i1 %tobool14, label %if.then15, label %if.end16

if.then15:                                        ; preds = %if.end13
  %5 = load i64, ptr %rval, align 8
  %6 = load ptr, ptr %ret_value.addr, align 8
  store i64 %5, ptr %6, align 8
  br label %if.end16

if.end16:                                         ; preds = %if.then15, %if.end13
  ret i32 -1
}