; Function Attrs: nounwind sspstrong uwtable
define internal noundef i32 @rmw_seed(ptr readnone captures(none) %env, i32 %csrno, ptr noundef writeonly %ret_value, i64 %new_value, i64 %write_mask) #2 {
entry:
  %random_v = alloca i16, align 2
  %random_e = alloca ptr, align 8
  store ptr null, ptr %random_e, align 8
  %call = call i32 @qemu_guest_getrandom(ptr noundef nonnull %random_v, i64 noundef 2, ptr noundef nonnull %random_e) #11
  %cmp = icmp slt i32 %call, 0
  br i1 %cmp, label %do.body, label %if.else

do.body:                                          ; preds = %entry
  %0 = load i32, ptr @qemu_loglevel, align 4
  %and.i = and i32 %0, 1024
  %cmp.i.not = icmp eq i32 %and.i, 0
  br i1 %cmp.i.not, label %do.end, label %if.then9

if.then9:                                         ; preds = %do.body
  %1 = load ptr, ptr %random_e, align 8
  %call10 = call ptr @error_get_pretty(ptr noundef %1) #11
  call void (ptr, ...) @qemu_log(ptr noundef nonnull @.str.19, ptr noundef nonnull @__func__.rmw_seed, ptr noundef %call10) #11
  br label %do.end

do.end:                                           ; preds = %do.body, %if.then9
  %2 = load ptr, ptr %random_e, align 8
  call void @error_free(ptr noundef %2) #11
  br label %if.end13

if.else:                                          ; preds = %entry
  %3 = load i16, ptr %random_v, align 2
  %conv11 = zext i16 %3 to i64
  %or = or disjoint i64 %conv11, -2147483648
  br label %if.end13

if.end13:                                         ; preds = %if.else, %do.end
  %rval.0 = phi i64 [ -1073741824, %do.end ], [ %or, %if.else ]
  %tobool14.not = icmp eq ptr %ret_value, null
  br i1 %tobool14.not, label %if.end16, label %if.then15

if.then15:                                        ; preds = %if.end13
  store i64 %rval.0, ptr %ret_value, align 8
  br label %if.end16

if.end16:                                         ; preds = %if.then15, %if.end13
  ret i32 -1
}